; Function Attrs: mustprogress uwtable
define internal fastcc noundef zeroext i1 @_ZN7msdfgenL19hasDiagonalArtifactINS_20ShapeDistanceCheckerINS_26OverlappingContourCombinerELi4EE18ArtifactClassifierEEEbRKT_fPKfS9_S9_S9_(ptr noundef nonnull align 8 dereferenceable(40) %artifactClassifier, float noundef %am, ptr noundef readonly captures(none) %a, ptr noundef readonly captures(none) %b, ptr noundef readonly captures(none) %c, ptr noundef readonly captures(none) %d) unnamed_addr #0 {
entry:
  %l = alloca [3 x float], align 4
  %q = alloca [3 x float], align 4
  %0 = load float, ptr %d, align 4
  %arrayidx1 = getelementptr inbounds nuw i8, ptr %d, i64 4
  %1 = load float, ptr %arrayidx1, align 4
  %arrayidx2 = getelementptr inbounds nuw i8, ptr %d, i64 8
  %2 = load float, ptr %arrayidx2, align 4
  %cmp.i.i = fcmp olt float %1, %0
  %cond.i.i = select i1 %cmp.i.i, float %1, float %0
  %cmp.i3.i = fcmp olt float %0, %1
  %cond.i4.i = select i1 %cmp.i3.i, float %1, float %0
  %cmp.i5.i = fcmp olt float %2, %cond.i4.i
  %cond.i6.i = select i1 %cmp.i5.i, float %2, float %cond.i4.i
  %cmp.i7.i = fcmp olt float %cond.i.i, %cond.i6.i
  %cond.i8.i = select i1 %cmp.i7.i, float %cond.i6.i, float %cond.i.i
  %sub = fadd float %am, -5.000000e-01
  %3 = tail call float @llvm.fabs.f32(float %sub)
  %sub3 = fadd float %cond.i8.i, -5.000000e-01
  %4 = tail call float @llvm.fabs.f32(float %sub3)
  %cmp = fcmp ult float %3, %4
  br i1 %cmp, label %return, label %if.then

if.then:                                          ; preds = %entry
  %5 = load float, ptr %a, align 4
  %6 = load float, ptr %b, align 4
  %sub6 = fsub float %5, %6
  %7 = load float, ptr %c, align 4
  %sub8 = fsub float %sub6, %7
  %arrayidx9 = getelementptr inbounds nuw i8, ptr %a, i64 4
  %8 = load float, ptr %arrayidx9, align 4
  %arrayidx10 = getelementptr inbounds nuw i8, ptr %b, i64 4
  %9 = load float, ptr %arrayidx10, align 4
  %sub11 = fsub float %8, %9
  %arrayidx12 = getelementptr inbounds nuw i8, ptr %c, i64 4
  %10 = load float, ptr %arrayidx12, align 4
  %sub13 = fsub float %sub11, %10
  %arrayidx15 = getelementptr inbounds nuw i8, ptr %a, i64 8
  %11 = load float, ptr %arrayidx15, align 4
  %arrayidx16 = getelementptr inbounds nuw i8, ptr %b, i64 8
  %12 = load float, ptr %arrayidx16, align 4
  %sub17 = fsub float %11, %12
  %arrayidx18 = getelementptr inbounds nuw i8, ptr %c, i64 8
  %13 = load float, ptr %arrayidx18, align 4
  %sub19 = fsub float %sub17, %13
  %fneg = fneg float %5
  %sub23 = fsub float %fneg, %sub8
  store float %sub23, ptr %l, align 4
  %arrayinit.element24 = getelementptr inbounds nuw i8, ptr %l, i64 4
  %fneg26 = fneg float %8
  %sub28 = fsub float %fneg26, %sub13
  store float %sub28, ptr %arrayinit.element24, align 4
  %arrayinit.element29 = getelementptr inbounds nuw i8, ptr %l, i64 8
  %fneg31 = fneg float %11
  %sub33 = fsub float %fneg31, %sub19
  store float %sub33, ptr %arrayinit.element29, align 4
  %add = fadd float %0, %sub8
  store float %add, ptr %q, align 4
  %arrayinit.element37 = getelementptr inbounds nuw i8, ptr %q, i64 4
  %add40 = fadd float %1, %sub13
  store float %add40, ptr %arrayinit.element37, align 4
  %arrayinit.element41 = getelementptr inbounds nuw i8, ptr %q, i64 8
  %add44 = fadd float %2, %sub19
  store float %add44, ptr %arrayinit.element41, align 4
  %conv = fpext float %sub23 to double
  %mul = fmul double %conv, -5.000000e-01
  %conv48 = fpext float %add to double
  %div = fdiv double %mul, %conv48
  %conv51 = fpext float %sub28 to double
  %mul52 = fmul double %conv51, -5.000000e-01
  %conv54 = fpext float %add40 to double
  %div55 = fdiv double %mul52, %conv54
  %conv58 = fpext float %sub33 to double
  %mul59 = fmul double %conv58, -5.000000e-01
  %conv61 = fpext float %add44 to double
  %div62 = fdiv double %mul59, %conv61
  %sub66 = fsub float %8, %5
  %sub69 = fsub float %9, %6
  %add71 = fadd float %sub69, %10
  %sub73 = fsub float %add71, %7
  %sub76 = fsub float %1, %0
  %call79 = call fastcc noundef zeroext i1 @_ZN7msdfgenL24hasDiagonalArtifactInnerINS_20ShapeDistanceCheckerINS_26OverlappingContourCombinerELi4EE18ArtifactClassifierEEEbRKT_ffPKfS9_S9_fffdd(ptr noundef nonnull align 8 dereferenceable(40) %artifactClassifier, float noundef %am, float noundef %cond.i8.i, ptr noundef nonnull %a, ptr noundef %l, ptr noundef %q, float noundef %sub66, float noundef %sub73, float noundef %sub76, double noundef %div, double noundef %div55)
  br i1 %call79, label %return, label %lor.lhs.false

lor.lhs.false:                                    ; preds = %if.then
  %14 = load float, ptr %arrayidx15, align 4
  %15 = load float, ptr %arrayidx9, align 4
  %sub84 = fsub float %14, %15
  %16 = load float, ptr %arrayidx16, align 4
  %17 = load float, ptr %arrayidx10, align 4
  %sub87 = fsub float %16, %17
  %18 = load float, ptr %arrayidx18, align 4
  %add89 = fadd float %sub87, %18
  %19 = load float, ptr %arrayidx12, align 4
  %sub91 = fsub float %add89, %19
  %20 = load float, ptr %arrayidx2, align 4
  %21 = load float, ptr %arrayidx1, align 4
  %sub94 = fsub float %20, %21
  %call97 = call fastcc noundef zeroext i1 @_ZN7msdfgenL24hasDiagonalArtifactInnerINS_20ShapeDistanceCheckerINS_26OverlappingContourCombinerELi4EE18ArtifactClassifierEEEbRKT_ffPKfS9_S9_fffdd(ptr noundef nonnull align 8 dereferenceable(40) %artifactClassifier, float noundef %am, float noundef %cond.i8.i, ptr noundef nonnull %a, ptr noundef %l, ptr noundef %q, float noundef %sub84, float noundef %sub91, float noundef %sub94, double noundef %div55, double noundef %div62)
  br i1 %call97, label %return, label %lor.rhs

lor.rhs:                                          ; preds = %lor.lhs.false
  %22 = load float, ptr %a, align 4
  %23 = load float, ptr %arrayidx15, align 4
  %sub102 = fsub float %22, %23
  %24 = load float, ptr %b, align 4
  %25 = load float, ptr %arrayidx16, align 4
  %sub105 = fsub float %24, %25
  %26 = load float, ptr %c, align 4
  %add107 = fadd float %sub105, %26
  %27 = load float, ptr %arrayidx18, align 4
  %sub109 = fsub float %add107, %27
  %28 = load float, ptr %d, align 4
  %29 = load float, ptr %arrayidx2, align 4
  %sub112 = fsub float %28, %29
  %call115 = call fastcc noundef zeroext i1 @_ZN7msdfgenL24hasDiagonalArtifactInnerINS_20ShapeDistanceCheckerINS_26OverlappingContourCombinerELi4EE18ArtifactClassifierEEEbRKT_ffPKfS9_S9_fffdd(ptr noundef nonnull align 8 dereferenceable(40) %artifactClassifier, float noundef %am, float noundef %cond.i8.i, ptr noundef nonnull %a, ptr noundef %l, ptr noundef %q, float noundef %sub102, float noundef %sub109, float noundef %sub112, double noundef %div62, double noundef %div)
  br label %return

return:                                           ; preds = %entry, %if.then, %lor.lhs.false, %lor.rhs
  %retval.0 = phi i1 [ true, %lor.lhs.false ], [ true, %if.then ], [ %call115, %lor.rhs ], [ false, %entry ]
  ret i1 %retval.0
}